#include <math.h>
#include <stdio.h>
#include <stdlib.h>
#include <string.h>

int main (){
	char a[300],b[300];
	int i,j,n;
	gets(a);
	n=strlen(a);
	j=0;
		for(i=0;i<=n;i++){
		if(a[i]!=' '){
			b[j]=a[i];
			j++;
		}
		else if(a[i]==' '&&a[i+1]!=' '){
			b[j]=a[i];
			j++;
		}
		else if(a[i]=='\0')
                            b[j]=a[i];
	}
	printf("%s",b);

	return 0;
}
