; ModuleID = '62/1127.c'
source_filename = "62/1127.c"
target datalayout = "e-m:e-p270:32:32-p271:32:32-p272:64:64-i64:64-f80:128-n8:16:32:64-S128"
target triple = "x86_64-pc-linux-gnu"

@.str = private unnamed_addr constant [3 x i8] c"%s\00", align 1

; Function Attrs: noinline nounwind uwtable
define dso_local i32 @main() #0 {
  %1 = alloca i32, align 4
  %2 = alloca [300 x i8], align 16
  %3 = alloca [300 x i8], align 16
  %4 = alloca i32, align 4
  %5 = alloca i32, align 4
  %6 = alloca i32, align 4
  store i32 0, i32* %1, align 4
  %7 = getelementptr inbounds [300 x i8], [300 x i8]* %2, i64 0, i64 0
  %8 = call i32 (i8*, ...) bitcast (i32 (...)* @gets to i32 (i8*, ...)*)(i8* %7)
  %9 = getelementptr inbounds [300 x i8], [300 x i8]* %2, i64 0, i64 0
  %10 = call i64 @strlen(i8* %9) #3
  %11 = trunc i64 %10 to i32
  store i32 %11, i32* %6, align 4
  store i32 0, i32* %5, align 4
  store i32 0, i32* %4, align 4
  br label %12

12:                                               ; preds = %76, %0
  %13 = load i32, i32* %4, align 4
  %14 = load i32, i32* %6, align 4
  %15 = icmp sle i32 %13, %14
  br i1 %15, label %16, label %79

16:                                               ; preds = %12
  %17 = load i32, i32* %4, align 4
  %18 = sext i32 %17 to i64
  %19 = getelementptr inbounds [300 x i8], [300 x i8]* %2, i64 0, i64 %18
  %20 = load i8, i8* %19, align 1
  %21 = sext i8 %20 to i32
  %22 = icmp ne i32 %21, 32
  br i1 %22, label %23, label %33

23:                                               ; preds = %16
  %24 = load i32, i32* %4, align 4
  %25 = sext i32 %24 to i64
  %26 = getelementptr inbounds [300 x i8], [300 x i8]* %2, i64 0, i64 %25
  %27 = load i8, i8* %26, align 1
  %28 = load i32, i32* %5, align 4
  %29 = sext i32 %28 to i64
  %30 = getelementptr inbounds [300 x i8], [300 x i8]* %3, i64 0, i64 %29
  store i8 %27, i8* %30, align 1
  %31 = load i32, i32* %5, align 4
  %32 = add nsw i32 %31, 1
  store i32 %32, i32* %5, align 4
  br label %75

33:                                               ; preds = %16
  %34 = load i32, i32* %4, align 4
  %35 = sext i32 %34 to i64
  %36 = getelementptr inbounds [300 x i8], [300 x i8]* %2, i64 0, i64 %35
  %37 = load i8, i8* %36, align 1
  %38 = sext i8 %37 to i32
  %39 = icmp eq i32 %38, 32
  br i1 %39, label %40, label %58

40:                                               ; preds = %33
  %41 = load i32, i32* %4, align 4
  %42 = add nsw i32 %41, 1
  %43 = sext i32 %42 to i64
  %44 = getelementptr inbounds [300 x i8], [300 x i8]* %2, i64 0, i64 %43
  %45 = load i8, i8* %44, align 1
  %46 = sext i8 %45 to i32
  %47 = icmp ne i32 %46, 32
  br i1 %47, label %48, label %58

48:                                               ; preds = %40
  %49 = load i32, i32* %4, align 4
  %50 = sext i32 %49 to i64
  %51 = getelementptr inbounds [300 x i8], [300 x i8]* %2, i64 0, i64 %50
  %52 = load i8, i8* %51, align 1
  %53 = load i32, i32* %5, align 4
  %54 = sext i32 %53 to i64
  %55 = getelementptr inbounds [300 x i8], [300 x i8]* %3, i64 0, i64 %54
  store i8 %52, i8* %55, align 1
  %56 = load i32, i32* %5, align 4
  %57 = add nsw i32 %56, 1
  store i32 %57, i32* %5, align 4
  br label %74

58:                                               ; preds = %40, %33
  %59 = load i32, i32* %4, align 4
  %60 = sext i32 %59 to i64
  %61 = getelementptr inbounds [300 x i8], [300 x i8]* %2, i64 0, i64 %60
  %62 = load i8, i8* %61, align 1
  %63 = sext i8 %62 to i32
  %64 = icmp eq i32 %63, 0
  br i1 %64, label %65, label %73

65:                                               ; preds = %58
  %66 = load i32, i32* %4, align 4
  %67 = sext i32 %66 to i64
  %68 = getelementptr inbounds [300 x i8], [300 x i8]* %2, i64 0, i64 %67
  %69 = load i8, i8* %68, align 1
  %70 = load i32, i32* %5, align 4
  %71 = sext i32 %70 to i64
  %72 = getelementptr inbounds [300 x i8], [300 x i8]* %3, i64 0, i64 %71
  store i8 %69, i8* %72, align 1
  br label %73

73:                                               ; preds = %65, %58
  br label %74

74:                                               ; preds = %73, %48
  br label %75

75:                                               ; preds = %74, %23
  br label %76

76:                                               ; preds = %75
  %77 = load i32, i32* %4, align 4
  %78 = add nsw i32 %77, 1
  store i32 %78, i32* %4, align 4
  br label %12

79:                                               ; preds = %12
  %80 = getelementptr inbounds [300 x i8], [300 x i8]* %3, i64 0, i64 0
  %81 = call i32 (i8*, ...) @printf(i8* getelementptr inbounds ([3 x i8], [3 x i8]* @.str, i64 0, i64 0), i8* %80)
  ret i32 0
}

declare dso_local i32 @gets(...) #1

; Function Attrs: nounwind readonly
declare dso_local i64 @strlen(i8*) #2

declare dso_local i32 @printf(i8*, ...) #1


!llvm.module.flags = !{!0}
!llvm.ident = !{!1}

!0 = !{i32 1, !"wchar_size", i32 4}
!1 = !{!"clang version 10.0.0-4ubuntu1 "}
